; Function Attrs: mustprogress nounwind uwtable
define hidden void @_ZN6hermes2vm7HadesGC19debitExternalMemoryEPNS0_6GCCellEj(ptr noundef nonnull align 8 dereferenceable(8152) %this, ptr noundef %cell, i32 noundef %sz) unnamed_addr #4 align 2 {
entry:
  %youngGen_.i = getelementptr inbounds i8, ptr %this, i64 800
  %0 = load ptr, ptr %youngGen_.i, align 8
  %1 = ptrtoint ptr %cell to i64
  %and.i.i = and i64 %1, -4194304
  %2 = inttoptr i64 %and.i.i to ptr
  %cmp.i = icmp eq ptr %0, %2
  br i1 %cmp.i, label %if.then, label %if.else

if.then:                                          ; preds = %entry
  %ygExternalBytes_.i = getelementptr inbounds i8, ptr %this, i64 8080
  %3 = load i64, ptr %ygExternalBytes_.i, align 8
  %conv = zext i32 %sz to i64
  %sub = sub i64 %3, %conv
  store i64 %sub, ptr %ygExternalBytes_.i, align 8
  br label %if.end

if.else:                                          ; preds = %entry
  %gcMutex_ = getelementptr inbounds i8, ptr %this, i64 7544
  %call1.i.i.i.i = tail call noundef i32 @pthread_mutex_lock(ptr noundef nonnull %gcMutex_) #34
  %tobool.not.i.i = icmp eq i32 %call1.i.i.i.i, 0
  br i1 %tobool.not.i.i, label %_ZNSt10lock_guardISt15recursive_mutexEC2ERS0_.exit, label %if.then.i.i

if.then.i.i:                                      ; preds = %if.else
  tail call void @_ZSt20__throw_system_errori(i32 noundef %call1.i.i.i.i) #36
  unreachable

_ZNSt10lock_guardISt15recursive_mutexEC2ERS0_.exit: ; preds = %if.else
  %conv.i = zext i32 %sz to i64
  %externalBytes_.i = getelementptr inbounds i8, ptr %this, i64 984
  %4 = load i64, ptr %externalBytes_.i, align 8
  %sub.i = sub i64 %4, %conv.i
  store i64 %sub.i, ptr %externalBytes_.i, align 8
  %call1.i.i.i.i3 = tail call noundef i32 @pthread_mutex_unlock(ptr noundef nonnull %gcMutex_) #34
  br label %if.end

if.end:                                           ; preds = %_ZNSt10lock_guardISt15recursive_mutexEC2ERS0_.exit, %if.then
  ret void
}